target datalayout = "e-m:e-p270:32:32-p271:32:32-p272:64:64-i64:64-i128:128-f80:128-n8:16:32:64-S128"
target triple = "x86_64-pc-linux-gnu"

%"struct.duckdb::LogicalType" = type { i8, i8, %"class.duckdb::shared_ptr" }
%"class.duckdb::shared_ptr" = type { %"class.std::shared_ptr" }
%"class.std::shared_ptr" = type { %"class.std::__shared_ptr" }
%"class.std::__shared_ptr" = type { ptr, %"class.std::__shared_count" }
%"class.std::__shared_count" = type { ptr }
%"struct.duckdb::ValidityMask" = type { %"struct.duckdb::TemplatedValidityMask" }
%"struct.duckdb::TemplatedValidityMask" = type { ptr, %"class.duckdb::shared_ptr.160", i64 }
%"class.duckdb::shared_ptr.160" = type { %"class.std::shared_ptr.161" }
%"class.std::shared_ptr.161" = type { %"class.std::__shared_ptr.162" }
%"class.std::__shared_ptr.162" = type { ptr, %"class.std::__shared_count" }
%"class.duckdb::DataChunk" = type { %"class.duckdb::vector.172", i64, i64, %"class.duckdb::vector.178" }
%"class.duckdb::vector.172" = type { %"class.std::vector.173" }
%"class.std::vector.173" = type { %"struct.std::_Vector_base.174" }
%"struct.std::_Vector_base.174" = type { %"struct.std::_Vector_base<duckdb::Vector, std::allocator<duckdb::Vector>>::_Vector_impl" }
%"struct.std::_Vector_base<duckdb::Vector, std::allocator<duckdb::Vector>>::_Vector_impl" = type { %"struct.std::_Vector_base<duckdb::Vector, std::allocator<duckdb::Vector>>::_Vector_impl_data" }
%"struct.std::_Vector_base<duckdb::Vector, std::allocator<duckdb::Vector>>::_Vector_impl_data" = type { ptr, ptr, ptr }
%"class.duckdb::vector.178" = type { %"class.std::vector.179" }
%"class.std::vector.179" = type { %"struct.std::_Vector_base.180" }
%"struct.std::_Vector_base.180" = type { %"struct.std::_Vector_base<duckdb::VectorCache, std::allocator<duckdb::VectorCache>>::_Vector_impl" }
%"struct.std::_Vector_base<duckdb::VectorCache, std::allocator<duckdb::VectorCache>>::_Vector_impl" = type { %"struct.std::_Vector_base<duckdb::VectorCache, std::allocator<duckdb::VectorCache>>::_Vector_impl_data" }
%"struct.std::_Vector_base<duckdb::VectorCache, std::allocator<duckdb::VectorCache>>::_Vector_impl_data" = type { ptr, ptr, ptr }
%"class.duckdb::Vector" = type { i8, %"struct.duckdb::LogicalType", ptr, %"struct.duckdb::ValidityMask", %"class.duckdb::shared_ptr.164", %"class.duckdb::shared_ptr.164" }
%"class.duckdb::shared_ptr.164" = type { %"class.std::shared_ptr.165" }
%"class.std::shared_ptr.165" = type { %"class.std::__shared_ptr.166" }
%"class.std::__shared_ptr.166" = type { ptr, %"class.std::__shared_count" }

; Function Attrs: inlinehint mustprogress nounwind uwtable
define linkonce_odr void @_ZN6duckdb9DataChunk14SetCardinalityEm(ptr noundef nonnull align 8 dereferenceable(64) %0, i64 noundef %1) #8 comdat align 2 {
  %3 = alloca ptr, align 8
  %4 = alloca i64, align 8
  store ptr %0, ptr %3, align 8, !tbaa !15
  store i64 %1, ptr %4, align 8, !tbaa !25
  %5 = load ptr, ptr %3, align 8
  %6 = load i64, ptr %4, align 8, !tbaa !25
  %7 = getelementptr inbounds nuw %"class.duckdb::DataChunk", ptr %5, i32 0, i32 1
  store i64 %6, ptr %7, align 8, !tbaa !331
  ret void
}

; Function Attrs: mustprogress uwtable
define void @_ZN6duckdb13SinkDataChunkEPNS_6VectorERNS_15SelectionVectorEmRNS_6vectorINS_11LogicalTypeELb1EEES7_RS0_RNS_14LocalSortStateERbS8_(ptr noundef %0, ptr noundef nonnull align 8 dereferenceable(24) %1, i64 noundef %2, ptr noundef nonnull align 8 dereferenceable(24) %3, ptr noundef nonnull align 8 dereferenceable(24) %4, ptr noundef nonnull align 8 dereferenceable(104) %5, ptr noundef nonnull align 8 dereferenceable(208) %6, ptr noundef nonnull align 1 dereferenceable(1) %7, ptr noundef nonnull align 8 dereferenceable(104) %8) #4 personality ptr @__gxx_personality_v0 {
  %10 = alloca ptr, align 8
  %11 = alloca ptr, align 8
  %12 = alloca i64, align 8
  %13 = alloca ptr, align 8
  %14 = alloca ptr, align 8
  %15 = alloca ptr, align 8
  %16 = alloca ptr, align 8
  %17 = alloca ptr, align 8
  %18 = alloca ptr, align 8
  %19 = alloca %"class.duckdb::Vector", align 8
  %20 = alloca %"class.duckdb::DataChunk", align 8
  %21 = alloca ptr, align 8
  %22 = alloca i32, align 4
  %23 = alloca %"class.duckdb::DataChunk", align 8
  store ptr %0, ptr %10, align 8, !tbaa !19
  store ptr %1, ptr %11, align 8, !tbaa !326
  store i64 %2, ptr %12, align 8, !tbaa !25
  store ptr %3, ptr %13, align 8, !tbaa !13
  store ptr %4, ptr %14, align 8, !tbaa !13
  store ptr %5, ptr %15, align 8, !tbaa !19
  store ptr %6, ptr %16, align 8, !tbaa !327
  store ptr %7, ptr %17, align 8, !tbaa !281
  store ptr %8, ptr %18, align 8, !tbaa !19
  call void @llvm.lifetime.start.p0(i64 104, ptr %19) #3
  %24 = load ptr, ptr %10, align 8, !tbaa !19
  %25 = load ptr, ptr %11, align 8, !tbaa !326
  %26 = load i64, ptr %12, align 8, !tbaa !25
  call void @_ZN6duckdb6VectorC1ERKS0_RKNS_15SelectionVectorEm(ptr noundef nonnull align 8 dereferenceable(104) %19, ptr noundef nonnull align 8 dereferenceable(104) %24, ptr noundef nonnull align 8 dereferenceable(24) %25, i64 noundef %26)
  call void @llvm.lifetime.start.p0(i64 64, ptr %20) #3
  invoke void @_ZN6duckdb9DataChunkC1Ev(ptr noundef nonnull align 8 dereferenceable(64) %20)
          to label %27 unwind label %57

27:                                               ; preds = %9
  %28 = load ptr, ptr %13, align 8, !tbaa !13
  invoke void @_ZN6duckdb9DataChunk15InitializeEmptyERKNS_6vectorINS_11LogicalTypeELb1EEE(ptr noundef nonnull align 8 dereferenceable(64) %20, ptr noundef nonnull align 8 dereferenceable(24) %28)
          to label %29 unwind label %61

29:                                               ; preds = %27
  %30 = getelementptr inbounds nuw %"class.duckdb::DataChunk", ptr %20, i32 0, i32 0
  %31 = invoke noundef nonnull align 8 dereferenceable(104) ptr @_ZN6duckdb6vectorINS_6VectorELb1EEixEm(ptr noundef nonnull align 8 dereferenceable(24) %30, i64 noundef 0)
          to label %32 unwind label %61

32:                                               ; preds = %29
  %33 = load ptr, ptr %18, align 8, !tbaa !19
  invoke void @_ZN6duckdb6Vector9ReferenceERKS0_(ptr noundef nonnull align 8 dereferenceable(104) %31, ptr noundef nonnull align 8 dereferenceable(104) %33)
          to label %34 unwind label %61

34:                                               ; preds = %32
  %35 = getelementptr inbounds nuw %"class.duckdb::DataChunk", ptr %20, i32 0, i32 0
  %36 = invoke noundef nonnull align 8 dereferenceable(104) ptr @_ZN6duckdb6vectorINS_6VectorELb1EEixEm(ptr noundef nonnull align 8 dereferenceable(24) %35, i64 noundef 1)
          to label %37 unwind label %61

37:                                               ; preds = %34
  invoke void @_ZN6duckdb6Vector9ReferenceERKS0_(ptr noundef nonnull align 8 dereferenceable(104) %36, ptr noundef nonnull align 8 dereferenceable(104) %19)
          to label %38 unwind label %61

38:                                               ; preds = %37
  %39 = load i64, ptr %12, align 8, !tbaa !25
  invoke void @_ZN6duckdb9DataChunk14SetCardinalityEm(ptr noundef nonnull align 8 dereferenceable(64) %20, i64 noundef %39)
          to label %40 unwind label %61

40:                                               ; preds = %38
  call void @llvm.lifetime.start.p0(i64 64, ptr %23) #3
  invoke void @_ZN6duckdb9DataChunkC1Ev(ptr noundef nonnull align 8 dereferenceable(64) %23)
          to label %41 unwind label %65

41:                                               ; preds = %40
  %42 = load ptr, ptr %14, align 8, !tbaa !13
  invoke void @_ZN6duckdb9DataChunk15InitializeEmptyERKNS_6vectorINS_11LogicalTypeELb1EEE(ptr noundef nonnull align 8 dereferenceable(64) %23, ptr noundef nonnull align 8 dereferenceable(24) %42)
          to label %43 unwind label %69

43:                                               ; preds = %41
  %44 = getelementptr inbounds nuw %"class.duckdb::DataChunk", ptr %23, i32 0, i32 0
  %45 = invoke noundef nonnull align 8 dereferenceable(104) ptr @_ZN6duckdb6vectorINS_6VectorELb1EEixEm(ptr noundef nonnull align 8 dereferenceable(24) %44, i64 noundef 0)
          to label %46 unwind label %69

46:                                               ; preds = %43
  %47 = load ptr, ptr %15, align 8, !tbaa !19
  invoke void @_ZN6duckdb6Vector9ReferenceERKS0_(ptr noundef nonnull align 8 dereferenceable(104) %45, ptr noundef nonnull align 8 dereferenceable(104) %47)
          to label %48 unwind label %69

48:                                               ; preds = %46
  %49 = load i64, ptr %12, align 8, !tbaa !25
  invoke void @_ZN6duckdb9DataChunk14SetCardinalityEm(ptr noundef nonnull align 8 dereferenceable(64) %23, i64 noundef %49)
          to label %50 unwind label %69

50:                                               ; preds = %48
  invoke void @_ZN6duckdb9DataChunk6VerifyEv(ptr noundef nonnull align 8 dereferenceable(64) %20)
          to label %51 unwind label %69

51:                                               ; preds = %50
  invoke void @_ZN6duckdb9DataChunk6VerifyEv(ptr noundef nonnull align 8 dereferenceable(64) %23)
          to label %52 unwind label %69

52:                                               ; preds = %51
  invoke void @_ZN6duckdb9DataChunk7FlattenEv(ptr noundef nonnull align 8 dereferenceable(64) %20)
          to label %53 unwind label %69

53:                                               ; preds = %52
  %54 = load ptr, ptr %16, align 8, !tbaa !327
  invoke void @_ZN6duckdb14LocalSortState9SinkChunkERNS_9DataChunkES2_(ptr noundef nonnull align 8 dereferenceable(208) %54, ptr noundef nonnull align 8 dereferenceable(64) %20, ptr noundef nonnull align 8 dereferenceable(64) %23)
          to label %55 unwind label %69

55:                                               ; preds = %53
  %56 = load ptr, ptr %17, align 8, !tbaa !281
  store i8 1, ptr %56, align 1, !tbaa !149
  call void @_ZN6duckdb9DataChunkD1Ev(ptr noundef nonnull align 8 dereferenceable(64) %23) #3
  call void @llvm.lifetime.end.p0(i64 64, ptr %23) #3
  call void @_ZN6duckdb9DataChunkD1Ev(ptr noundef nonnull align 8 dereferenceable(64) %20) #3
  call void @llvm.lifetime.end.p0(i64 64, ptr %20) #3
  call void @_ZN6duckdb6VectorD2Ev(ptr noundef nonnull align 8 dereferenceable(104) %19) #3
  call void @llvm.lifetime.end.p0(i64 104, ptr %19) #3
  ret void

57:                                               ; preds = %9
  %58 = landingpad { ptr, i32 }
          cleanup
  %59 = extractvalue { ptr, i32 } %58, 0
  store ptr %59, ptr %21, align 8
  %60 = extractvalue { ptr, i32 } %58, 1
  store i32 %60, ptr %22, align 4
  br label %75

61:                                               ; preds = %38, %37, %34, %32, %29, %27
  %62 = landingpad { ptr, i32 }
          cleanup
  %63 = extractvalue { ptr, i32 } %62, 0
  store ptr %63, ptr %21, align 8
  %64 = extractvalue { ptr, i32 } %62, 1
  store i32 %64, ptr %22, align 4
  br label %74

65:                                               ; preds = %40
  %66 = landingpad { ptr, i32 }
          cleanup
  %67 = extractvalue { ptr, i32 } %66, 0
  store ptr %67, ptr %21, align 8
  %68 = extractvalue { ptr, i32 } %66, 1
  store i32 %68, ptr %22, align 4
  br label %73

69:                                               ; preds = %53, %52, %51, %50, %48, %46, %43, %41
  %70 = landingpad { ptr, i32 }
          cleanup
  %71 = extractvalue { ptr, i32 } %70, 0
  store ptr %71, ptr %21, align 8
  %72 = extractvalue { ptr, i32 } %70, 1
  store i32 %72, ptr %22, align 4
  call void @_ZN6duckdb9DataChunkD1Ev(ptr noundef nonnull align 8 dereferenceable(64) %23) #3
  br label %73

73:                                               ; preds = %69, %65
  call void @llvm.lifetime.end.p0(i64 64, ptr %23) #3
  br label %74

74:                                               ; preds = %73, %61
  call void @_ZN6duckdb9DataChunkD1Ev(ptr noundef nonnull align 8 dereferenceable(64) %20) #3
  br label %75

75:                                               ; preds = %74, %57
  call void @llvm.lifetime.end.p0(i64 64, ptr %20) #3
  call void @_ZN6duckdb6VectorD2Ev(ptr noundef nonnull align 8 dereferenceable(104) %19) #3
  call void @llvm.lifetime.end.p0(i64 104, ptr %19) #3
  br label %76

76:                                               ; preds = %75
  %77 = load ptr, ptr %21, align 8
  %78 = load i32, ptr %22, align 4
  %79 = insertvalue { ptr, i32 } poison, ptr %77, 0
  %80 = insertvalue { ptr, i32 } %79, i32 %78, 1
  resume { ptr, i32 } %80
}