; Function Attrs: mustprogress uwtable
define void @_ZN6duckdb13SinkDataChunkEPNS_6VectorERNS_15SelectionVectorEmRNS_6vectorINS_11LogicalTypeELb1EEES7_RS0_RNS_14LocalSortStateERbS8_(ptr noundef nonnull %0, ptr noundef nonnull align 8 dereferenceable(24) %1, i64 noundef %2, ptr noundef nonnull align 8 dereferenceable(24) %3, ptr noundef nonnull align 8 dereferenceable(24) %4, ptr noundef nonnull align 8 dereferenceable(104) %5, ptr noundef nonnull align 8 dereferenceable(208) %6, ptr noundef nonnull writeonly align 1 captures(none) dereferenceable(1) %7, ptr noundef nonnull align 8 dereferenceable(104) %8) local_unnamed_addr #3 personality ptr @__gxx_personality_v0 {
  %10 = alloca %"class.duckdb::Vector", align 8
  %11 = alloca %"class.duckdb::DataChunk", align 8
  %12 = alloca %"class.duckdb::DataChunk", align 8
  call void @llvm.lifetime.start.p0(i64 104, ptr nonnull %10) #27
  call void @_ZN6duckdb6VectorC1ERKS0_RKNS_15SelectionVectorEm(ptr noundef nonnull align 8 dereferenceable(104) %10, ptr noundef nonnull align 8 dereferenceable(104) %0, ptr noundef nonnull align 8 dereferenceable(24) %1, i64 noundef %2)
  call void @llvm.lifetime.start.p0(i64 64, ptr nonnull %11) #27
  invoke void @_ZN6duckdb9DataChunkC1Ev(ptr noundef nonnull align 8 dereferenceable(64) %11)
          to label %13 unwind label %32

13:                                               ; preds = %9
  invoke void @_ZN6duckdb9DataChunk15InitializeEmptyERKNS_6vectorINS_11LogicalTypeELb1EEE(ptr noundef nonnull align 8 dereferenceable(64) %11, ptr noundef nonnull align 8 dereferenceable(24) %3)
          to label %14 unwind label %34

14:                                               ; preds = %13
  %15 = invoke noundef nonnull align 8 dereferenceable(104) ptr @_ZN6duckdb6vectorINS_6VectorELb1EEixEm(ptr noundef nonnull align 8 dereferenceable(24) %11, i64 noundef 0)
          to label %16 unwind label %34

16:                                               ; preds = %14
  invoke void @_ZN6duckdb6Vector9ReferenceERKS0_(ptr noundef nonnull align 8 dereferenceable(104) %15, ptr noundef nonnull align 8 dereferenceable(104) %8)
          to label %17 unwind label %34

17:                                               ; preds = %16
  %18 = invoke noundef nonnull align 8 dereferenceable(104) ptr @_ZN6duckdb6vectorINS_6VectorELb1EEixEm(ptr noundef nonnull align 8 dereferenceable(24) %11, i64 noundef 1)
          to label %19 unwind label %34

19:                                               ; preds = %17
  invoke void @_ZN6duckdb6Vector9ReferenceERKS0_(ptr noundef nonnull align 8 dereferenceable(104) %18, ptr noundef nonnull align 8 dereferenceable(104) %10)
          to label %20 unwind label %34

20:                                               ; preds = %19
  %21 = getelementptr inbounds nuw i8, ptr %11, i64 24
  store i64 %2, ptr %21, align 8, !tbaa !43
  call void @llvm.lifetime.start.p0(i64 64, ptr nonnull %12) #27
  invoke void @_ZN6duckdb9DataChunkC1Ev(ptr noundef nonnull align 8 dereferenceable(64) %12)
          to label %22 unwind label %36

22:                                               ; preds = %20
  invoke void @_ZN6duckdb9DataChunk15InitializeEmptyERKNS_6vectorINS_11LogicalTypeELb1EEE(ptr noundef nonnull align 8 dereferenceable(64) %12, ptr noundef nonnull align 8 dereferenceable(24) %4)
          to label %23 unwind label %38

23:                                               ; preds = %22
  %24 = invoke noundef nonnull align 8 dereferenceable(104) ptr @_ZN6duckdb6vectorINS_6VectorELb1EEixEm(ptr noundef nonnull align 8 dereferenceable(24) %12, i64 noundef 0)
          to label %25 unwind label %38

25:                                               ; preds = %23
  invoke void @_ZN6duckdb6Vector9ReferenceERKS0_(ptr noundef nonnull align 8 dereferenceable(104) %24, ptr noundef nonnull align 8 dereferenceable(104) %5)
          to label %26 unwind label %38

26:                                               ; preds = %25
  %27 = getelementptr inbounds nuw i8, ptr %12, i64 24
  store i64 %2, ptr %27, align 8, !tbaa !43
  invoke void @_ZN6duckdb9DataChunk6VerifyEv(ptr noundef nonnull align 8 dereferenceable(64) %11)
          to label %28 unwind label %38

28:                                               ; preds = %26
  invoke void @_ZN6duckdb9DataChunk6VerifyEv(ptr noundef nonnull align 8 dereferenceable(64) %12)
          to label %29 unwind label %38

29:                                               ; preds = %28
  invoke void @_ZN6duckdb9DataChunk7FlattenEv(ptr noundef nonnull align 8 dereferenceable(64) %11)
          to label %30 unwind label %38

30:                                               ; preds = %29
  invoke void @_ZN6duckdb14LocalSortState9SinkChunkERNS_9DataChunkES2_(ptr noundef nonnull align 8 dereferenceable(208) %6, ptr noundef nonnull align 8 dereferenceable(64) %11, ptr noundef nonnull align 8 dereferenceable(64) %12)
          to label %31 unwind label %38

31:                                               ; preds = %30
  store i8 1, ptr %7, align 1, !tbaa !395
  call void @_ZN6duckdb9DataChunkD1Ev(ptr noundef nonnull align 8 dereferenceable(64) %12) #27
  call void @llvm.lifetime.end.p0(i64 64, ptr nonnull %12) #27
  call void @_ZN6duckdb9DataChunkD1Ev(ptr noundef nonnull align 8 dereferenceable(64) %11) #27
  call void @llvm.lifetime.end.p0(i64 64, ptr nonnull %11) #27
  call void @_ZN6duckdb6VectorD2Ev(ptr noundef nonnull align 8 dereferenceable(104) %10) #27
  call void @llvm.lifetime.end.p0(i64 104, ptr nonnull %10) #27
  ret void

32:                                               ; preds = %9
  %33 = landingpad { ptr, i32 }
          cleanup
  br label %42

34:                                               ; preds = %19, %17, %16, %14, %13
  %35 = landingpad { ptr, i32 }
          cleanup
  br label %41

36:                                               ; preds = %20
  %37 = landingpad { ptr, i32 }
          cleanup
  br label %40

38:                                               ; preds = %30, %29, %28, %26, %25, %23, %22
  %39 = landingpad { ptr, i32 }
          cleanup
  call void @_ZN6duckdb9DataChunkD1Ev(ptr noundef nonnull align 8 dereferenceable(64) %12) #27
  br label %40

40:                                               ; preds = %38, %36
  %.pn = phi { ptr, i32 } [ %39, %38 ], [ %37, %36 ]
  call void @llvm.lifetime.end.p0(i64 64, ptr nonnull %12) #27
  br label %41

41:                                               ; preds = %40, %34
  %.pn.pn = phi { ptr, i32 } [ %.pn, %40 ], [ %35, %34 ]
  call void @_ZN6duckdb9DataChunkD1Ev(ptr noundef nonnull align 8 dereferenceable(64) %11) #27
  br label %42

42:                                               ; preds = %41, %32
  %.pn.pn.pn = phi { ptr, i32 } [ %.pn.pn, %41 ], [ %33, %32 ]
  call void @llvm.lifetime.end.p0(i64 64, ptr nonnull %11) #27
  call void @_ZN6duckdb6VectorD2Ev(ptr noundef nonnull align 8 dereferenceable(104) %10) #27
  call void @llvm.lifetime.end.p0(i64 104, ptr nonnull %10) #27
  resume { ptr, i32 } %.pn.pn.pn
}